; Function Attrs: mustprogress nounwind uwtable
define hidden void @_ZN4llvm24AggressiveAntiDepBreakerD2Ev(ptr noundef nonnull align 8 dereferenceable(128) initializes((0, 8)) %0) unnamed_addr #0 align 2 {
  store ptr getelementptr inbounds nuw inrange(-16, 48) (i8, ptr @_ZTVN4llvm24AggressiveAntiDepBreakerE, i64 16), ptr %0, align 8
  %2 = getelementptr inbounds nuw i8, ptr %0, i64 120
  %3 = load ptr, ptr %2, align 8
  %4 = icmp eq ptr %3, null
  br i1 %4, label %6, label %5

5:                                                ; preds = %1
  tail call void @_ZN4llvm22AggressiveAntiDepStateD2Ev(ptr noundef nonnull align 8 dereferenceable(152) %3) #16
  tail call void @_ZdlPvm(ptr noundef nonnull %3, i64 noundef 152) #19
  br label %6

6:                                                ; preds = %5, %1
  %7 = getelementptr inbounds nuw i8, ptr %0, i64 48
  %8 = tail call noundef i64 @_ZNK4llvm15SmallVectorBaseIjE4sizeEv(ptr noundef nonnull align 8 dereferenceable(68) %7) #16
  %9 = load ptr, ptr %7, align 8
  %10 = getelementptr inbounds nuw i8, ptr %0, i64 64
  %11 = icmp eq ptr %9, %10
  br i1 %11, label %_ZN4llvm9BitVectorD2Ev.exit, label %12

12:                                               ; preds = %6
  tail call void @free(ptr noundef %9) #16
  br label %_ZN4llvm9BitVectorD2Ev.exit

_ZN4llvm9BitVectorD2Ev.exit:                      ; preds = %6, %12
  tail call void @_ZN4llvm14AntiDepBreakerD2Ev(ptr noundef nonnull align 8 dereferenceable(8) %0) #16
  ret void
}